target datalayout = "e-m:e-p270:32:32-p271:32:32-p272:64:64-i64:64-i128:128-f80:128-n8:16:32:64-S128"
target triple = "x86_64-pc-linux-gnu"

; Function Attrs: mustprogress nounwind uwtable
define dso_local noundef zeroext i1 @_ZNK4llvm4Loop22getInductionDescriptorERNS_15ScalarEvolutionERNS_19InductionDescriptorE(ptr noundef nonnull align 8 dereferenceable(152) %0, ptr noundef nonnull align 8 dereferenceable(1392) %1, ptr noundef nonnull align 8 dereferenceable(80) %2) #0 align 2 {
  %4 = alloca i1, align 1
  %5 = alloca ptr, align 8
  %6 = alloca ptr, align 8
  %7 = alloca ptr, align 8
  %8 = alloca ptr, align 8
  store ptr %0, ptr %5, align 8
  store ptr %1, ptr %6, align 8
  store ptr %2, ptr %7, align 8
  %9 = load ptr, ptr %5, align 8
  %10 = load ptr, ptr %6, align 8
  %11 = call noundef ptr @_ZNK4llvm4Loop20getInductionVariableERNS_15ScalarEvolutionE(ptr noundef nonnull align 8 dereferenceable(152) %9, ptr noundef nonnull align 8 dereferenceable(1392) %10)
  store ptr %11, ptr %8, align 8
  %12 = load ptr, ptr %8, align 8
  %13 = icmp ne ptr %12, null
  br i1 %13, label %14, label %19

14:                                               ; preds = %3
  %15 = load ptr, ptr %8, align 8
  %16 = load ptr, ptr %6, align 8
  %17 = load ptr, ptr %7, align 8
  %18 = call noundef zeroext i1 @_ZN4llvm19InductionDescriptor14isInductionPHIEPNS_7PHINodeEPKNS_4LoopEPNS_15ScalarEvolutionERS0_PKNS_4SCEVEPNS_15SmallVectorImplIPNS_11InstructionEEE(ptr noundef %15, ptr noundef %9, ptr noundef %16, ptr noundef nonnull align 8 dereferenceable(80) %17, ptr noundef null, ptr noundef null)
  store i1 %18, ptr %4, align 1
  br label %20

19:                                               ; preds = %3
  store i1 false, ptr %4, align 1
  br label %20

20:                                               ; preds = %19, %14
  %21 = load i1, ptr %4, align 1
  ret i1 %21
}