; Function Attrs: mustprogress nounwind uwtable
define dso_local noundef zeroext i1 @_ZNK4llvm4Loop22getInductionDescriptorERNS_15ScalarEvolutionERNS_19InductionDescriptorE(ptr noundef nonnull align 8 dereferenceable(152) %0, ptr noundef nonnull align 8 dereferenceable(1392) %1, ptr noundef nonnull align 8 dereferenceable(80) %2) local_unnamed_addr #0 align 2 {
  %4 = tail call noundef ptr @_ZNK4llvm4Loop20getInductionVariableERNS_15ScalarEvolutionE(ptr noundef nonnull align 8 dereferenceable(152) %0, ptr noundef nonnull align 8 dereferenceable(1392) %1)
  %.not = icmp eq ptr %4, null
  br i1 %.not, label %7, label %5

5:                                                ; preds = %3
  %6 = tail call noundef zeroext i1 @_ZN4llvm19InductionDescriptor14isInductionPHIEPNS_7PHINodeEPKNS_4LoopEPNS_15ScalarEvolutionERS0_PKNS_4SCEVEPNS_15SmallVectorImplIPNS_11InstructionEEE(ptr noundef nonnull %4, ptr noundef nonnull %0, ptr noundef nonnull %1, ptr noundef nonnull align 8 dereferenceable(80) %2, ptr noundef null, ptr noundef null) #19
  br label %7

7:                                                ; preds = %3, %5
  %.0 = phi i1 [ %6, %5 ], [ false, %3 ]
  ret i1 %.0
}